; Function Attrs: mustprogress nofree norecurse nosync nounwind willreturn memory(argmem: read) uwtable
define noundef zeroext i1 @_ZNK6icu_756number4impl17ParsedPatternInfo15hasCurrencySignEv(ptr nocapture noundef nonnull readonly align 8 dereferenceable(433) %this) unnamed_addr #8 align 2 {
entry:
  %hasCurrencySign = getelementptr inbounds i8, ptr %this, i64 210
  %0 = load i8, ptr %hasCurrencySign, align 2
  %1 = and i8 %0, 1
  %tobool.not = icmp eq i8 %1, 0
  br i1 %tobool.not, label %lor.rhs, label %lor.end

lor.rhs:                                          ; preds = %entry
  %fHasNegativeSubpattern = getelementptr inbounds i8, ptr %this, i64 432
  %2 = load i8, ptr %fHasNegativeSubpattern, align 8
  %3 = and i8 %2, 1
  %tobool2.not = icmp eq i8 %3, 0
  br i1 %tobool2.not, label %lor.end, label %land.rhs

land.rhs:                                         ; preds = %lor.rhs
  %hasCurrencySign3 = getelementptr inbounds i8, ptr %this, i64 378
  %4 = load i8, ptr %hasCurrencySign3, align 2
  %5 = and i8 %4, 1
  %tobool4 = icmp ne i8 %5, 0
  br label %lor.end

lor.end:                                          ; preds = %lor.rhs, %land.rhs, %entry
  %6 = phi i1 [ true, %entry ], [ false, %lor.rhs ], [ %tobool4, %land.rhs ]
  ret i1 %6
}